; Function Attrs: mustprogress uwtable
define void @_Z27grpc_auth_json_key_destructP18grpc_auth_json_key(ptr noundef %0) local_unnamed_addr #6 {
  %2 = icmp eq ptr %0, null
  br i1 %2, label %19, label %3

3:                                                ; preds = %1
  store ptr @.str, ptr %0, align 8, !tbaa !3
  %4 = getelementptr inbounds nuw i8, ptr %0, i64 16
  %5 = load ptr, ptr %4, align 8, !tbaa !21
  %.not = icmp eq ptr %5, null
  br i1 %.not, label %7, label %6

6:                                                ; preds = %3
  tail call void @gpr_free(ptr noundef nonnull %5)
  store ptr null, ptr %4, align 8, !tbaa !21
  br label %7

7:                                                ; preds = %6, %3
  %8 = getelementptr inbounds nuw i8, ptr %0, i64 8
  %9 = load ptr, ptr %8, align 8, !tbaa !22
  %.not18 = icmp eq ptr %9, null
  br i1 %.not18, label %11, label %10

10:                                               ; preds = %7
  tail call void @gpr_free(ptr noundef nonnull %9)
  store ptr null, ptr %8, align 8, !tbaa !22
  br label %11

11:                                               ; preds = %10, %7
  %12 = getelementptr inbounds nuw i8, ptr %0, i64 24
  %13 = load ptr, ptr %12, align 8, !tbaa !23
  %.not19 = icmp eq ptr %13, null
  br i1 %.not19, label %15, label %14

14:                                               ; preds = %11
  tail call void @gpr_free(ptr noundef nonnull %13)
  store ptr null, ptr %12, align 8, !tbaa !23
  br label %15

15:                                               ; preds = %14, %11
  %16 = getelementptr inbounds nuw i8, ptr %0, i64 32
  %17 = load ptr, ptr %16, align 8, !tbaa !20
  %.not20 = icmp eq ptr %17, null
  br i1 %.not20, label %19, label %18

18:                                               ; preds = %15
  tail call void @RSA_free(ptr noundef nonnull %17)
  store ptr null, ptr %16, align 8, !tbaa !20
  br label %19

19:                                               ; preds = %1, %18, %15
  ret void
}